target datalayout = "e-m:e-p270:32:32-p271:32:32-p272:64:64-i64:64-i128:128-f80:128-n8:16:32:64-S128"
target triple = "x86_64-pc-linux-gnu"

%union.pthread_mutex_t = type { %struct.__pthread_mutex_s }
%struct.__pthread_mutex_s = type { i32, i32, i32, i32, i32, i16, i16, %struct.__pthread_internal_list }
%struct.__pthread_internal_list = type { ptr, ptr }
%struct.wolfSSL_RefWithMutex = type { %union.pthread_mutex_t, i32 }
%struct.WOLFSSL_CTX = type <{ ptr, %struct.wolfSSL_RefWithMutex, i32, [4 x i8], %struct.WOLFSSL_BUFFER_INFO, %struct.WOLFSSL_BUFFER_INFO, ptr, ptr, i32, [4 x i8], ptr, i8, i8, [2 x i8], i32, i32, [4 x i8], ptr, ptr, ptr, i8, i16, i8, i8, i8, i16, i16, i16, i16, [2 x i8], i64, ptr, ptr, ptr, ptr, i32, i32, i16, [2 x i8], i32, [10 x i16], i8, [3 x i8], ptr, ptr, i32, [4 x i8], ptr, i8, [7 x i8] }>
%struct.WOLFSSL_BUFFER_INFO = type { ptr, i32 }

; Function Attrs: nounwind uwtable
define void @wolfSSL_CTX_set_verify_depth(ptr noundef %0, i32 noundef %1) #0 {
  %3 = alloca ptr, align 8
  %4 = alloca i32, align 4
  store ptr %0, ptr %3, align 8, !tbaa !24
  store i32 %1, ptr %4, align 4, !tbaa !7
  br label %5

5:                                                ; preds = %2
  br label %6

6:                                                ; preds = %5
  %7 = load ptr, ptr %3, align 8, !tbaa !24
  %8 = icmp eq ptr %7, null
  br i1 %8, label %15, label %9

9:                                                ; preds = %6
  %10 = load i32, ptr %4, align 4, !tbaa !7
  %11 = icmp slt i32 %10, 0
  br i1 %11, label %15, label %12

12:                                               ; preds = %9
  %13 = load i32, ptr %4, align 4, !tbaa !7
  %14 = icmp sgt i32 %13, 9
  br i1 %14, label %15, label %18

15:                                               ; preds = %12, %9, %6
  br label %16

16:                                               ; preds = %15
  br label %17

17:                                               ; preds = %16
  br label %23

18:                                               ; preds = %12
  %19 = load i32, ptr %4, align 4, !tbaa !7
  %20 = trunc i32 %19 to i8
  %21 = load ptr, ptr %3, align 8, !tbaa !24
  %22 = getelementptr inbounds nuw %struct.WOLFSSL_CTX, ptr %21, i32 0, i32 20
  store i8 %20, ptr %22, align 8, !tbaa !247
  br label %23

23:                                               ; preds = %18, %17
  ret void
}