; Function Attrs: mustprogress nofree norecurse nosync nounwind willreturn memory(argmem: write) uwtable
define void @wolfSSL_CTX_set_verify_depth(ptr noundef writeonly captures(address_is_null) %0, i32 noundef %1) local_unnamed_addr #5 {
  %3 = icmp eq ptr %0, null
  %4 = icmp ugt i32 %1, 9
  %or.cond3 = or i1 %3, %4
  br i1 %or.cond3, label %8, label %5

5:                                                ; preds = %2
  %6 = trunc nuw nsw i32 %1 to i8
  %7 = getelementptr inbounds nuw i8, ptr %0, i64 168
  store i8 %6, ptr %7, align 8, !tbaa !230
  br label %8

8:                                                ; preds = %2, %5
  ret void
}